target datalayout = "e-m:e-p270:32:32-p271:32:32-p272:64:64-i64:64-i128:128-f80:128-n8:16:32:64-S128"
target triple = "x86_64-pc-linux-gnu"

%struct.ewah_bitmap = type { ptr, i64, i64, i64, ptr }

; Function Attrs: nounwind uwtable
define dso_local void @ewah_free(ptr noundef %0) #0 {
  %2 = alloca ptr, align 8
  store ptr %0, ptr %2, align 8, !tbaa !4
  %3 = load ptr, ptr %2, align 8, !tbaa !4
  %4 = icmp ne ptr %3, null
  br i1 %4, label %6, label %5

5:                                                ; preds = %1
  br label %17

6:                                                ; preds = %1
  %7 = load ptr, ptr %2, align 8, !tbaa !4
  %8 = getelementptr inbounds nuw %struct.ewah_bitmap, ptr %7, i32 0, i32 2
  %9 = load i64, ptr %8, align 8, !tbaa !23
  %10 = icmp ne i64 %9, 0
  br i1 %10, label %11, label %15

11:                                               ; preds = %6
  %12 = load ptr, ptr %2, align 8, !tbaa !4
  %13 = getelementptr inbounds nuw %struct.ewah_bitmap, ptr %12, i32 0, i32 0
  %14 = load ptr, ptr %13, align 8, !tbaa !21
  call void @free(ptr noundef %14) #7
  br label %15

15:                                               ; preds = %11, %6
  %16 = load ptr, ptr %2, align 8, !tbaa !4
  call void @free(ptr noundef %16) #7
  br label %17

17:                                               ; preds = %15, %5
  ret void
}