; Function Attrs: mustprogress nounwind willreturn uwtable
define dso_local void @ewah_free(ptr noundef %0) local_unnamed_addr #4 {
  %.not = icmp eq ptr %0, null
  br i1 %.not, label %8, label %2

2:                                                ; preds = %1
  %3 = getelementptr inbounds nuw i8, ptr %0, i64 16
  %4 = load i64, ptr %3, align 8, !tbaa !15
  %.not4 = icmp eq i64 %4, 0
  br i1 %.not4, label %7, label %5

5:                                                ; preds = %2
  %6 = load ptr, ptr %0, align 8, !tbaa !14
  tail call void @free(ptr noundef %6) #12
  br label %7

7:                                                ; preds = %5, %2
  tail call void @free(ptr noundef nonnull %0) #12
  br label %8

8:                                                ; preds = %1, %7
  ret void
}